; Function Attrs: mustprogress nofree norecurse nosync nounwind sspstrong willreturn memory(readwrite, inaccessiblemem: none) uwtable
define internal void @of_dpa_term_mac_build_match(ptr noundef readonly captures(none) %fc, ptr noundef writeonly captures(none) initializes((0, 4), (8, 14), (20, 28), (104, 108)) %match) #13 {
entry:
  %tbl_id = getelementptr inbounds nuw i8, ptr %match, i64 8
  store i32 20, ptr %tbl_id, align 8
  %0 = load i32, ptr %fc, align 8
  store i32 %0, ptr %match, align 8
  %h_proto = getelementptr inbounds nuw i8, ptr %fc, i64 72
  %1 = load ptr, ptr %h_proto, align 8
  %2 = load i16, ptr %1, align 2
  %eth = getelementptr inbounds nuw i8, ptr %match, i64 12
  %type = getelementptr inbounds nuw i8, ptr %match, i64 26
  store i16 %2, ptr %type, align 2
  %vlanhdr = getelementptr inbounds nuw i8, ptr %fc, i64 80
  %3 = load ptr, ptr %vlanhdr, align 8
  %4 = load i16, ptr %3, align 2
  store i16 %4, ptr %eth, align 4
  %dst = getelementptr inbounds nuw i8, ptr %match, i64 20
  %ethhdr = getelementptr inbounds nuw i8, ptr %fc, i64 64
  %5 = load ptr, ptr %ethhdr, align 8
  tail call void @llvm.memcpy.p0.p0.i64(ptr noundef nonnull align 4 dereferenceable(6) %dst, ptr noundef nonnull align 2 dereferenceable(6) %5, i64 6, i1 false)
  %width = getelementptr inbounds nuw i8, ptr %match, i64 104
  store i32 4, ptr %width, align 8
  ret void
}